Certificate:
    Data:
        Version: 3 (0x2)
        Serial Number: 1 (0x1)
        Signature Algorithm: sha256WithRSAEncryption
        Issuer: C=FR, ST=Radius, L=Somewhere, O=Example Inc/emailAddress=admin@example.org, CN=Example Certificate Authority
        Validity
            Not Before: Feb 13 16:43:40 2025 GMT
            Not After : Apr 14 16:43:40 2025 GMT
        Subject: C=FR, ST=Radius, O=Example Inc, CN=Example Server Certificate/emailAddress=admin@example.org
        Subject Public Key Info:
            Public Key Algorithm: rsaEncryption
                RSA Public-Key: (2048 bit)
                Modulus:
                    00:ee:34:59:b7:09:76:26:e4:08:10:9b:c9:ad:77:
                    be:24:d7:2b:71:90:13:5c:7a:3f:5a:f8:72:30:0d:
                    52:ca:67:f9:59:9e:6b:88:2a:9b:2b:0e:bc:5b:27:
                    e7:ed:13:d2:50:90:fe:2c:04:5c:28:77:7a:3c:b5:
                    98:37:b9:43:77:11:28:8c:01:67:45:45:b6:f4:fb:
                    f4:b7:73:96:ca:c1:fb:66:e0:00:74:bf:33:56:92:
                    bc:70:ba:5f:a3:29:f6:f4:62:7b:a9:8c:2c:80:af:
                    91:76:c7:d4:4a:21:3c:25:dd:00:ba:c6:b7:6c:5e:
                    de:e6:af:a0:15:27:25:89:a0:5c:09:f6:ee:48:d0:
                    2f:84:b3:5d:af:37:a6:3c:d0:77:5e:39:25:1d:c7:
                    ad:f2:57:e2:94:30:e8:e9:ef:28:08:a5:67:72:22:
                    24:0f:12:be:65:21:f8:21:f0:ff:2b:1b:29:11:87:
                    7d:89:75:d9:b3:3e:e2:f4:df:a5:96:96:bf:0b:8f:
                    47:90:08:87:10:53:ef:7d:4e:84:7f:c9:70:75:3b:
                    57:14:a0:e2:b2:49:cf:88:c1:ea:83:7e:78:44:cc:
                    10:c6:53:77:04:e3:39:e0:c3:88:8f:35:28:36:16:
                    12:21:3e:8b:06:d0:88:c7:88:ab:1d:b2:8e:c6:1d:
                    fc:59
                Exponent: 65537 (0x10001)
        X509v3 extensions:
            X509v3 Subject Key Identifier: 
                36:F7:94:3C:36:DE:6C:CD:97:30:CA:88:96:2F:CD:F7:6A:7E:8A:E1
            X509v3 Authority Key Identifier: 
                keyid:37:7F:DF:29:E2:1A:74:10:81:54:F2:02:4E:E7:77:F5:6C:E6:39:F7
                DirName:/C=FR/ST=Radius/L=Somewhere/O=Example Inc/emailAddress=admin@example.org/CN=Example Certificate Authority
                serial:0B:BA:FE:CB:94:8C:79:E3:C4:4E:04:22:CA:02:42:B9:2F:34:22:FC

            X509v3 Basic Constraints: 
                CA:FALSE
            X509v3 Key Usage: 
                Digital Signature, Non Repudiation, Key Encipherment
            X509v3 Extended Key Usage: 
                TLS Web Server Authentication, 1.3.6.1.5.5.7.3.14
            X509v3 CRL Distribution Points: 

                Full Name:
                  URI:http://www.example.com/example_ca.crl

            Authority Information Access: 
                OCSP - URI:http://www.example.org/ocsp

            X509v3 Subject Alternative Name: 
                DNS:radius.example.org, othername:<unsupported>
    Signature Algorithm: sha256WithRSAEncryption
         aa:28:6d:ce:3d:e6:9a:2c:31:7f:87:6d:f1:d8:6b:8b:8b:e3:
         2e:07:cf:3f:b7:10:52:a4:61:ac:7e:ef:8f:fe:b3:19:3d:a4:
         08:e7:85:62:2a:1b:59:31:44:b3:5c:cd:98:e8:8e:ad:d8:64:
         c1:a9:a2:ca:09:10:02:3d:06:59:00:f1:f3:fe:62:bc:46:01:
         4c:47:3a:8a:33:2f:6b:53:2a:9f:95:bd:b8:da:4e:20:ba:dd:
         11:f5:06:f6:5a:1b:e8:0f:b2:ad:ac:95:12:e9:0c:50:b6:b3:
         9f:1d:50:79:21:52:20:63:0e:80:6b:1f:0f:27:c9:77:93:85:
         03:1f:f2:7e:f6:f1:a0:e7:8c:4c:ec:d7:1b:67:e1:ca:48:a7:
         70:8d:48:de:4c:79:9c:87:7f:a1:3b:e3:26:c2:e5:38:02:f4:
         98:91:b6:2f:d8:ac:e9:fe:17:7a:1d:61:48:b9:80:fd:89:6d:
         7f:c0:50:8b:ed:ef:88:7b:f1:be:ad:87:94:a3:a3:bf:f9:91:
         ad:c5:8b:87:60:63:6b:a7:0a:81:f3:85:5e:3c:d6:2c:93:06:
         5f:dd:41:ff:2a:2d:de:08:1c:19:91:cd:04:9e:46:c7:24:c7:
         db:b6:34:f3:0b:55:16:b2:9a:74:85:30:7f:b0:8a:d1:25:6a:
         54:0d:69:23
-----BEGIN CERTIFICATE-----
MIIFZzCCBE+gAwIBAgIBATANBgkqhkiG9w0BAQsFADCBkjELMAkGA1UEBhMCRlIx
DzANBgNVBAgMBlJhZGl1czESMBAGA1UEBwwJU29tZXdoZXJlMRQwEgYDVQQKDAtF
eGFtcGxlIEluYzEgMB4GCSqGSIb3DQEJARYRYWRtaW5AZXhhbXBsZS5vcmcxJjAk
BgNVBAMMHUV4YW1wbGUgQ2VydGlmaWNhdGUgQXV0aG9yaXR5MB4XDTI1MDIxMzE2
NDM0MFoXDTI1MDQxNDE2NDM0MFowezELMAkGA1UEBhMCRlIxDzANBgNVBAgMBlJh
ZGl1czEUMBIGA1UECgwLRXhhbXBsZSBJbmMxIzAhBgNVBAMMGkV4YW1wbGUgU2Vy
dmVyIENlcnRpZmljYXRlMSAwHgYJKoZIhvcNAQkBFhFhZG1pbkBleGFtcGxlLm9y
ZzCCASIwDQYJKoZIhvcNAQEBBQADggEPADCCAQoCggEBAO40WbcJdibkCBCbya13
viTXK3GQE1x6P1r4cjANUspn+Vmea4gqmysOvFsn5+0T0lCQ/iwEXCh3ejy1mDe5
Q3cRKIwBZ0VFtvT79LdzlsrB+2bgAHS/M1aSvHC6X6Mp9vRie6mMLICvkXbH1Eoh
PCXdALrGt2xe3uavoBUnJYmgXAn27kjQL4SzXa83pjzQd145JR3HrfJX4pQw6Onv
KAilZ3IiJA8SvmUh+CHw/ysbKRGHfYl12bM+4vTfpZaWvwuPR5AIhxBT731OhH/J
cHU7VxSg4rJJz4jB6oN+eETMEMZTdwTjOeDDiI81KDYWEiE+iwbQiMeIqx2yjsYd
/FkCAwEAAaOCAdwwggHYMB0GA1UdDgQWBBQ295Q8Nt5szZcwyoiWL833an6K4TCB
0gYDVR0jBIHKMIHHgBQ3f98p4hp0EIFU8gJO53f1bOY596GBmKSBlTCBkjELMAkG
A1UEBhMCRlIxDzANBgNVBAgMBlJhZGl1czESMBAGA1UEBwwJU29tZXdoZXJlMRQw
EgYDVQQKDAtFeGFtcGxlIEluYzEgMB4GCSqGSIb3DQEJARYRYWRtaW5AZXhhbXBs
ZS5vcmcxJjAkBgNVBAMMHUV4YW1wbGUgQ2VydGlmaWNhdGUgQXV0aG9yaXR5ghQL
uv7LlIx548ROBCLKAkK5LzQi/DAJBgNVHRMEAjAAMAsGA1UdDwQEAwIF4DAdBgNV
HSUEFjAUBggrBgEFBQcDAQYIKwYBBQUHAw4wNgYDVR0fBC8wLTAroCmgJ4YlaHR0
cDovL3d3dy5leGFtcGxlLmNvbS9leGFtcGxlX2NhLmNybDA3BggrBgEFBQcBAQQr
MCkwJwYIKwYBBQUHMAGGG2h0dHA6Ly93d3cuZXhhbXBsZS5vcmcvb2NzcDA6BgNV
HREEMzAxghJyYWRpdXMuZXhhbXBsZS5vcmegGwYIKwYBBQUHCAigDwwNKi5leGFt
cGxlLmNvbTANBgkqhkiG9w0BAQsFAAOCAQEAqihtzj3mmiwxf4dt8dhri4vjLgfP
P7cQUqRhrH7vj/6zGT2kCOeFYiobWTFEs1zNmOiOrdhkwamiygkQAj0GWQDx8/5i
vEYBTEc6ijMva1Mqn5W9uNpOILrdEfUG9lob6A+yrayVEukMULaznx1QeSFSIGMO
gGsfDyfJd5OFAx/yfvbxoOeMTOzXG2fhykincI1I3kx5nId/oTvjJsLlOAL0mJG2
L9is6f4Xeh1hSLmA/Yltf8BQi+3viHvxvq2HlKOjv/mRrcWLh2Bja6cKgfOFXjzW
LJMGX91B/yot3ggcGZHNBJ5GxyTH27Y08wtVFrKadIUwf7CK0SVqVA1pIw==
-----END CERTIFICATE-----
