Certificate:
    Data:
        Version: 3 (0x2)
        Serial Number: 2 (0x2)
        Signature Algorithm: ecdsa-with-SHA256
        Issuer: C=FR, ST=Radius, L=Somewhere, O=Example Inc/emailAddress=admin@example.org, CN=Example Certificate Authority
        Validity
            Not Before: Feb 13 16:43:40 2025 GMT
            Not After : Apr 14 16:43:40 2025 GMT
        Subject: C=FR, ST=Radius, O=Example Inc, CN=Example Server Certificate/emailAddress=admin@example.org
        Subject Public Key Info:
            Public Key Algorithm: id-ecPublicKey
                Public-Key: (256 bit)
                pub:
                    04:83:1a:8d:ab:3a:28:ce:99:8c:f7:7e:18:3e:d6:
                    8c:21:d6:a9:a2:4f:f6:3f:7c:d8:6d:fa:a8:2b:41:
                    81:81:66:bf:e0:d1:d4:22:d7:7b:25:ec:8f:c6:6f:
                    17:c3:01:62:af:5b:65:07:20:0b:77:87:71:74:48:
                    c0:f5:15:6e:15
                ASN1 OID: prime256v1
                NIST CURVE: P-256
        X509v3 extensions:
            X509v3 Subject Key Identifier: 
                8A:20:2B:0B:A0:15:C9:F6:27:83:99:43:DE:6C:5C:48:EF:B3:5F:BB
            X509v3 Authority Key Identifier: 
                keyid:F2:38:C3:CC:C8:4F:36:FB:9A:9F:AA:78:F8:4E:E8:AF:46:6B:02:22
                DirName:/C=FR/ST=Radius/L=Somewhere/O=Example Inc/emailAddress=admin@example.org/CN=Example Certificate Authority
                serial:6B:FC:4B:CF:DD:B7:E6:C0:F6:69:20:BC:58:29:89:FA:3C:79:6D:BA

            X509v3 Basic Constraints: 
                CA:FALSE
            X509v3 Key Usage: 
                Digital Signature, Non Repudiation, Key Encipherment
            X509v3 Extended Key Usage: 
                TLS Web Server Authentication, 1.3.6.1.5.5.7.3.14
            X509v3 CRL Distribution Points: 

                Full Name:
                  URI:http://www.example.com/example_ca.crl

            Authority Information Access: 
                OCSP - URI:http://www.example.org/ocsp

            X509v3 Subject Alternative Name: 
                DNS:radius.example.org, othername:<unsupported>
    Signature Algorithm: ecdsa-with-SHA256
         30:46:02:21:00:c1:90:f1:69:21:c5:72:18:12:47:23:2d:73:
         b4:a5:ac:2d:05:64:c6:6e:45:a9:9e:b6:fb:c9:8c:2b:f7:0f:
         81:02:21:00:f8:dd:ad:32:22:28:7d:8a:d5:4e:a0:59:a9:c4:
         69:02:72:1d:b7:04:2e:2f:84:f6:97:dc:ec:f1:a1:58:e5:c8
-----BEGIN CERTIFICATE-----
MIID3DCCA4GgAwIBAgIBAjAKBggqhkjOPQQDAjCBkjELMAkGA1UEBhMCRlIxDzAN
BgNVBAgMBlJhZGl1czESMBAGA1UEBwwJU29tZXdoZXJlMRQwEgYDVQQKDAtFeGFt
cGxlIEluYzEgMB4GCSqGSIb3DQEJARYRYWRtaW5AZXhhbXBsZS5vcmcxJjAkBgNV
BAMMHUV4YW1wbGUgQ2VydGlmaWNhdGUgQXV0aG9yaXR5MB4XDTI1MDIxMzE2NDM0
MFoXDTI1MDQxNDE2NDM0MFowezELMAkGA1UEBhMCRlIxDzANBgNVBAgMBlJhZGl1
czEUMBIGA1UECgwLRXhhbXBsZSBJbmMxIzAhBgNVBAMMGkV4YW1wbGUgU2VydmVy
IENlcnRpZmljYXRlMSAwHgYJKoZIhvcNAQkBFhFhZG1pbkBleGFtcGxlLm9yZzBZ
MBMGByqGSM49AgEGCCqGSM49AwEHA0IABIMajas6KM6ZjPd+GD7WjCHWqaJP9j98
2G36qCtBgYFmv+DR1CLXeyXsj8ZvF8MBYq9bZQcgC3eHcXRIwPUVbhWjggHcMIIB
2DAdBgNVHQ4EFgQUiiArC6AVyfYng5lD3mxcSO+zX7swgdIGA1UdIwSByjCBx4AU
8jjDzMhPNvuan6p4+E7or0ZrAiKhgZikgZUwgZIxCzAJBgNVBAYTAkZSMQ8wDQYD
VQQIDAZSYWRpdXMxEjAQBgNVBAcMCVNvbWV3aGVyZTEUMBIGA1UECgwLRXhhbXBs
ZSBJbmMxIDAeBgkqhkiG9w0BCQEWEWFkbWluQGV4YW1wbGUub3JnMSYwJAYDVQQD
DB1FeGFtcGxlIENlcnRpZmljYXRlIEF1dGhvcml0eYIUa/xLz9235sD2aSC8WCmJ
+jx5bbowCQYDVR0TBAIwADALBgNVHQ8EBAMCBeAwHQYDVR0lBBYwFAYIKwYBBQUH
AwEGCCsGAQUFBwMOMDYGA1UdHwQvMC0wK6ApoCeGJWh0dHA6Ly93d3cuZXhhbXBs
ZS5jb20vZXhhbXBsZV9jYS5jcmwwNwYIKwYBBQUHAQEEKzApMCcGCCsGAQUFBzAB
hhtodHRwOi8vd3d3LmV4YW1wbGUub3JnL29jc3AwOgYDVR0RBDMwMYIScmFkaXVz
LmV4YW1wbGUub3JnoBsGCCsGAQUFBwgIoA8MDSouZXhhbXBsZS5jb20wCgYIKoZI
zj0EAwIDSQAwRgIhAMGQ8WkhxXIYEkcjLXO0pawtBWTGbkWpnrb7yYwr9w+BAiEA
+N2tMiIofYrVTqBZqcRpAnIdtwQuL4T2l9zs8aFY5cg=
-----END CERTIFICATE-----
