Certificate:
    Data:
        Version: 3 (0x2)
        Serial Number: 3 (0x3)
        Signature Algorithm: sha256WithRSAEncryption
        Issuer: C=FR, ST=Radius, L=Somewhere, O=Example Inc/emailAddress=admin@example.org, CN=Example Certificate Authority
        Validity
            Not Before: Feb 13 16:43:40 2025 GMT
            Not After : Apr 14 16:43:40 2025 GMT
        Subject: C=FR, ST=Radius, O=Example Inc, CN=Example user/emailAddress=user.example@example.org
        Subject Public Key Info:
            Public Key Algorithm: rsaEncryption
                RSA Public-Key: (2048 bit)
                Modulus:
                    00:c0:53:b5:23:3f:c9:8a:b6:fb:36:9b:a2:28:db:
                    12:a8:68:4d:79:a5:8a:d6:69:c6:dc:50:7b:c6:58:
                    a3:8e:a6:54:78:a0:94:c7:26:a7:5f:fa:ac:a2:18:
                    fd:4a:2a:bb:9e:eb:57:de:28:af:b7:7c:17:a4:ab:
                    7f:a2:20:5f:a2:85:7f:b8:85:50:26:06:d7:26:fa:
                    c2:4e:8f:61:e3:9b:ac:46:08:3e:59:d7:68:ba:42:
                    26:3c:7e:0d:40:c0:b8:b5:f6:63:d0:c3:c2:f7:e1:
                    19:71:c8:aa:61:7f:b9:70:ff:b2:5b:d6:12:b3:0f:
                    78:85:8b:fa:e8:9a:42:db:1a:a7:3e:1b:23:c2:03:
                    45:7b:d3:c2:f9:b3:39:92:ae:2b:da:f1:42:e7:4f:
                    4e:df:28:d4:a2:47:98:66:70:9c:4e:2d:e4:30:f0:
                    2a:ef:d8:2a:0b:11:86:9d:e6:22:52:f3:91:73:e0:
                    f4:07:6f:2a:7e:47:54:b0:35:34:b5:1e:68:fc:d8:
                    f2:11:14:df:59:b2:35:e6:a2:80:ba:92:d3:62:c0:
                    6d:c1:09:e0:74:0f:0a:29:65:15:d6:e2:db:1c:c8:
                    e7:ed:73:2a:0e:5f:94:41:7b:33:46:fd:04:ea:ff:
                    f5:6f:97:b9:1a:91:ec:dc:5e:5d:3b:48:d4:7f:3f:
                    69:7d
                Exponent: 65537 (0x10001)
        X509v3 extensions:
            X509v3 Basic Constraints: 
                CA:FALSE
            X509v3 Key Usage: 
                Digital Signature, Non Repudiation, Key Encipherment
            X509v3 Extended Key Usage: 
                TLS Web Client Authentication
            X509v3 CRL Distribution Points: 

                Full Name:
                  URI:http://www.example.com/example_ca.crl

            Authority Information Access: 
                OCSP - URI:http://www.example.org/ocsp

            X509v3 Subject Alternative Name: 
                email:user@example.org
    Signature Algorithm: sha256WithRSAEncryption
         05:1c:5b:76:40:1d:a7:88:8d:44:16:a6:b7:0e:3a:ab:a8:4a:
         01:65:67:f9:8c:c5:c4:11:31:98:60:2c:8e:e7:9c:51:06:3b:
         e2:85:5d:f7:1c:fc:fa:ee:40:b9:1d:62:8b:b3:e0:93:1f:1c:
         a0:a7:f3:ec:33:42:d5:49:09:f8:b0:6d:ef:dd:1c:8d:bc:ad:
         15:d6:d3:a3:9a:74:88:6c:9c:f7:3f:0a:53:91:6e:21:cf:56:
         8e:b1:99:42:a1:e9:4d:d1:a1:f6:cb:73:fd:b8:cd:6b:72:52:
         1c:39:68:ca:d6:be:15:98:aa:e8:7b:71:0b:40:6c:82:e1:b2:
         7b:3f:80:4e:b9:34:12:a8:1e:5c:20:b6:33:8e:ed:1d:3d:17:
         7e:12:3a:f1:33:6b:55:4a:53:b4:1e:a9:5e:b2:f3:30:fd:97:
         47:2a:14:f7:cd:f3:27:56:28:8c:5d:1b:9d:20:e0:63:94:4d:
         3b:92:17:b8:6c:61:ac:1b:bf:6f:1a:0f:aa:a3:49:3d:09:bb:
         2b:3d:64:e4:e1:95:b6:55:85:87:10:c3:0e:3e:44:79:5f:13:
         7e:f4:fa:aa:a0:59:d4:03:da:36:08:c0:70:9b:2d:61:fa:49:
         af:e6:85:18:f9:23:0a:5b:00:0e:66:a8:6f:eb:b1:20:73:3b:
         19:7d:79:07
-----BEGIN CERTIFICATE-----
MIIEQTCCAymgAwIBAgIBAzANBgkqhkiG9w0BAQsFADCBkjELMAkGA1UEBhMCRlIx
DzANBgNVBAgMBlJhZGl1czESMBAGA1UEBwwJU29tZXdoZXJlMRQwEgYDVQQKDAtF
eGFtcGxlIEluYzEgMB4GCSqGSIb3DQEJARYRYWRtaW5AZXhhbXBsZS5vcmcxJjAk
BgNVBAMMHUV4YW1wbGUgQ2VydGlmaWNhdGUgQXV0aG9yaXR5MB4XDTI1MDIxMzE2
NDM0MFoXDTI1MDQxNDE2NDM0MFowdDELMAkGA1UEBhMCRlIxDzANBgNVBAgMBlJh
ZGl1czEUMBIGA1UECgwLRXhhbXBsZSBJbmMxFTATBgNVBAMMDEV4YW1wbGUgdXNl
cjEnMCUGCSqGSIb3DQEJARYYdXNlci5leGFtcGxlQGV4YW1wbGUub3JnMIIBIjAN
BgkqhkiG9w0BAQEFAAOCAQ8AMIIBCgKCAQEAwFO1Iz/Jirb7NpuiKNsSqGhNeaWK
1mnG3FB7xlijjqZUeKCUxyanX/qsohj9Siq7nutX3iivt3wXpKt/oiBfooV/uIVQ
JgbXJvrCTo9h45usRgg+WddoukImPH4NQMC4tfZj0MPC9+EZcciqYX+5cP+yW9YS
sw94hYv66JpC2xqnPhsjwgNFe9PC+bM5kq4r2vFC509O3yjUokeYZnCcTi3kMPAq
79gqCxGGneYiUvORc+D0B28qfkdUsDU0tR5o/NjyERTfWbI15qKAupLTYsBtwQng
dA8KKWUV1uLbHMjn7XMqDl+UQXszRv0E6v/1b5e5GpHs3F5dO0jUfz9pfQIDAQAB
o4G+MIG7MAkGA1UdEwQCMAAwCwYDVR0PBAQDAgXgMBMGA1UdJQQMMAoGCCsGAQUF
BwMCMDYGA1UdHwQvMC0wK6ApoCeGJWh0dHA6Ly93d3cuZXhhbXBsZS5jb20vZXhh
bXBsZV9jYS5jcmwwNwYIKwYBBQUHAQEEKzApMCcGCCsGAQUFBzABhhtodHRwOi8v
d3d3LmV4YW1wbGUub3JnL29jc3AwGwYDVR0RBBQwEoEQdXNlckBleGFtcGxlLm9y
ZzANBgkqhkiG9w0BAQsFAAOCAQEABRxbdkAdp4iNRBamtw46q6hKAWVn+YzFxBEx
mGAsjuecUQY74oVd9xz8+u5AuR1ii7Pgkx8coKfz7DNC1UkJ+LBt790cjbytFdbT
o5p0iGyc9z8KU5FuIc9WjrGZQqHpTdGh9stz/bjNa3JSHDloyta+FZiq6HtxC0Bs
guGyez+ATrk0EqgeXCC2M47tHT0XfhI68TNrVUpTtB6pXrLzMP2XRyoU983zJ1Yo
jF0bnSDgY5RNO5IXuGxhrBu/bxoPqqNJPQm7Kz1k5OGVtlWFhxDDDj5EeV8TfvT6
qqBZ1APaNgjAcJstYfpJr+aFGPkjClsADmaob+uxIHM7GX15Bw==
-----END CERTIFICATE-----
