Certificate:
    Data:
        Version: 3 (0x2)
        Serial Number: 4 (0x4)
        Signature Algorithm: ecdsa-with-SHA256
        Issuer: C=FR, ST=Radius, L=Somewhere, O=Example Inc/emailAddress=admin@example.org, CN=Example Certificate Authority
        Validity
            Not Before: Feb 13 16:43:40 2025 GMT
            Not After : Apr 14 16:43:40 2025 GMT
        Subject: C=FR, ST=Radius, O=Example Inc, CN=Example user/emailAddress=user.example@example.org
        Subject Public Key Info:
            Public Key Algorithm: id-ecPublicKey
                Public-Key: (256 bit)
                pub:
                    04:a8:20:87:1e:c1:61:06:43:06:4c:b4:28:7e:b5:
                    16:c9:19:ef:f8:7e:1b:46:2c:d4:41:d4:7c:37:b2:
                    84:c9:20:85:cd:6c:61:fa:76:e9:6e:41:11:f8:6f:
                    3f:54:65:ad:be:0c:02:12:bf:56:75:0c:c1:c5:09:
                    29:f2:87:d0:db
                ASN1 OID: prime256v1
                NIST CURVE: P-256
        X509v3 extensions:
            X509v3 Basic Constraints: 
                CA:FALSE
            X509v3 Key Usage: 
                Digital Signature, Non Repudiation, Key Encipherment
            X509v3 Extended Key Usage: 
                TLS Web Client Authentication
            X509v3 CRL Distribution Points: 

                Full Name:
                  URI:http://www.example.com/example_ca.crl

            Authority Information Access: 
                OCSP - URI:http://www.example.org/ocsp

            X509v3 Subject Alternative Name: 
                email:user@example.org
    Signature Algorithm: ecdsa-with-SHA256
         30:44:02:20:47:09:78:d2:fa:ef:85:4a:29:6d:a0:06:58:90:
         db:e9:79:06:60:e3:9c:75:2d:b2:d2:53:a0:97:f2:45:22:8f:
         02:20:72:23:03:f6:d2:1a:c9:a1:0b:ab:22:c1:26:f2:25:ea:
         27:a0:0f:99:a4:f1:ec:99:9d:db:7b:fd:c7:6a:43:73
-----BEGIN CERTIFICATE-----
MIICtDCCAlugAwIBAgIBBDAKBggqhkjOPQQDAjCBkjELMAkGA1UEBhMCRlIxDzAN
BgNVBAgMBlJhZGl1czESMBAGA1UEBwwJU29tZXdoZXJlMRQwEgYDVQQKDAtFeGFt
cGxlIEluYzEgMB4GCSqGSIb3DQEJARYRYWRtaW5AZXhhbXBsZS5vcmcxJjAkBgNV
BAMMHUV4YW1wbGUgQ2VydGlmaWNhdGUgQXV0aG9yaXR5MB4XDTI1MDIxMzE2NDM0
MFoXDTI1MDQxNDE2NDM0MFowdDELMAkGA1UEBhMCRlIxDzANBgNVBAgMBlJhZGl1
czEUMBIGA1UECgwLRXhhbXBsZSBJbmMxFTATBgNVBAMMDEV4YW1wbGUgdXNlcjEn
MCUGCSqGSIb3DQEJARYYdXNlci5leGFtcGxlQGV4YW1wbGUub3JnMFkwEwYHKoZI
zj0CAQYIKoZIzj0DAQcDQgAEqCCHHsFhBkMGTLQofrUWyRnv+H4bRizUQdR8N7KE
ySCFzWxh+nbpbkER+G8/VGWtvgwCEr9WdQzBxQkp8ofQ26OBvjCBuzAJBgNVHRME
AjAAMAsGA1UdDwQEAwIF4DATBgNVHSUEDDAKBggrBgEFBQcDAjA2BgNVHR8ELzAt
MCugKaAnhiVodHRwOi8vd3d3LmV4YW1wbGUuY29tL2V4YW1wbGVfY2EuY3JsMDcG
CCsGAQUFBwEBBCswKTAnBggrBgEFBQcwAYYbaHR0cDovL3d3dy5leGFtcGxlLm9y
Zy9vY3NwMBsGA1UdEQQUMBKBEHVzZXJAZXhhbXBsZS5vcmcwCgYIKoZIzj0EAwID
RwAwRAIgRwl40vrvhUopbaAGWJDb6XkGYOOcdS2y0lOgl/JFIo8CIHIjA/bSGsmh
C6siwSbyJeonoA+ZpPHsmZ3be/3HakNz
-----END CERTIFICATE-----
