Certificate:
    Data:
        Version: 3 (0x2)
        Serial Number: 5 (0x5)
        Signature Algorithm: sha256WithRSAEncryption
        Issuer: C=FR, ST=Radius, L=Somewhere, O=Example Inc/emailAddress=admin@example.org, CN=Example Certificate Authority
        Validity
            Not Before: Feb 13 16:43:41 2025 GMT
            Not After : Apr 14 16:43:41 2025 GMT
        Subject: C=FR, ST=Radius, O=Example Inc, CN=Example OCSP Responder Certificate/emailAddress=admin@example.org
        Subject Public Key Info:
            Public Key Algorithm: rsaEncryption
                RSA Public-Key: (2048 bit)
                Modulus:
                    00:a3:22:2b:22:e8:e4:75:a1:77:c3:66:89:69:56:
                    22:41:a8:41:3d:ef:b4:e2:9b:82:94:09:43:66:7b:
                    bd:98:ec:a3:fb:6d:2b:a7:26:33:df:a6:ce:d8:7b:
                    b4:05:57:3b:43:b5:8c:f9:86:15:43:95:1f:3b:f2:
                    5f:67:73:ad:b1:5c:85:fc:a7:30:b3:8e:04:1f:99:
                    d3:91:ba:2a:99:44:2c:90:55:95:01:2c:d2:a3:01:
                    20:8c:24:75:a1:2c:28:e4:7b:f6:96:4f:f9:91:6e:
                    b3:cc:51:fa:c9:9c:fa:93:93:96:d3:dc:1b:a6:64:
                    c9:1f:0f:41:a7:2d:92:a7:70:db:c4:02:48:9c:4f:
                    ec:13:b3:94:ab:d7:95:37:bd:ff:7b:89:dd:ea:7d:
                    74:c3:80:2f:e2:b8:3f:f9:71:30:67:1d:b5:13:bf:
                    82:aa:1b:75:c6:1b:bf:00:c4:cd:2f:f6:f9:15:1c:
                    45:a7:de:51:bc:f0:f6:c2:a6:e2:00:15:28:b2:f0:
                    d2:79:c0:fc:05:a4:db:dc:98:dc:e6:a5:65:7a:7f:
                    2b:85:5c:da:da:70:a2:8d:54:c2:5a:5e:a7:1a:94:
                    bf:7a:5b:ac:af:2c:a0:37:92:9f:f0:1e:9a:c0:7e:
                    c0:93:25:f7:93:d5:d8:2b:eb:c4:b1:ae:e7:e6:ee:
                    3a:13
                Exponent: 65537 (0x10001)
        X509v3 extensions:
            X509v3 Basic Constraints: 
                CA:FALSE
            X509v3 Key Usage: 
                Digital Signature, Non Repudiation, Key Encipherment
            X509v3 Extended Key Usage: 
                OCSP Signing
    Signature Algorithm: sha256WithRSAEncryption
         7c:45:a2:aa:e6:2e:f3:31:1e:fa:c6:3b:54:dd:87:48:59:5e:
         8c:21:ae:08:75:06:93:cc:dc:f5:2b:ef:33:30:ed:7b:16:77:
         7b:dd:12:0f:11:3d:4d:b1:bd:86:a7:b3:76:72:05:4c:cf:47:
         9c:b6:e3:54:45:cf:74:4d:14:6d:7f:d2:49:34:5d:27:4a:e9:
         6b:15:b4:7e:67:07:51:b1:95:a8:79:56:76:d7:e1:17:48:2c:
         cc:d0:15:46:b4:e5:97:44:66:94:12:3a:c7:5b:a2:69:ad:86:
         19:4e:72:8c:3d:d0:13:3f:67:a3:d0:17:70:c1:37:7c:40:82:
         b5:0f:ab:1e:c0:0e:df:ba:7d:b6:64:66:ba:15:85:35:b2:88:
         56:e3:d5:6b:41:c3:b2:b3:a6:eb:1d:55:be:ca:f1:0f:85:d6:
         a3:6c:91:be:91:bd:7f:62:75:28:6d:d7:17:fc:04:74:72:55:
         6a:a1:cc:26:ff:9a:02:92:07:09:ec:a8:1d:93:02:8e:82:ff:
         5c:31:81:3d:d7:3e:11:28:64:e5:a9:c3:b6:9a:f1:17:c0:95:
         91:cf:23:e9:d0:c3:fd:2b:7b:f6:11:5e:01:50:62:0a:f7:43:
         f5:e3:19:64:b2:41:65:b1:2f:8a:d8:62:9f:ff:a6:17:1e:dc:
         01:42:bd:03
-----BEGIN CERTIFICATE-----
MIIDwTCCAqmgAwIBAgIBBTANBgkqhkiG9w0BAQsFADCBkjELMAkGA1UEBhMCRlIx
DzANBgNVBAgMBlJhZGl1czESMBAGA1UEBwwJU29tZXdoZXJlMRQwEgYDVQQKDAtF
eGFtcGxlIEluYzEgMB4GCSqGSIb3DQEJARYRYWRtaW5AZXhhbXBsZS5vcmcxJjAk
BgNVBAMMHUV4YW1wbGUgQ2VydGlmaWNhdGUgQXV0aG9yaXR5MB4XDTI1MDIxMzE2
NDM0MVoXDTI1MDQxNDE2NDM0MVowgYMxCzAJBgNVBAYTAkZSMQ8wDQYDVQQIDAZS
YWRpdXMxFDASBgNVBAoMC0V4YW1wbGUgSW5jMSswKQYDVQQDDCJFeGFtcGxlIE9D
U1AgUmVzcG9uZGVyIENlcnRpZmljYXRlMSAwHgYJKoZIhvcNAQkBFhFhZG1pbkBl
eGFtcGxlLm9yZzCCASIwDQYJKoZIhvcNAQEBBQADggEPADCCAQoCggEBAKMiKyLo
5HWhd8NmiWlWIkGoQT3vtOKbgpQJQ2Z7vZjso/ttK6cmM9+mzth7tAVXO0O1jPmG
FUOVHzvyX2dzrbFchfynMLOOBB+Z05G6KplELJBVlQEs0qMBIIwkdaEsKOR79pZP
+ZFus8xR+smc+pOTltPcG6ZkyR8PQactkqdw28QCSJxP7BOzlKvXlTe9/3uJ3ep9
dMOAL+K4P/lxMGcdtRO/gqobdcYbvwDEzS/2+RUcRafeUbzw9sKm4gAVKLLw0nnA
/AWk29yY3OalZXp/K4Vc2tpwoo1UwlpepxqUv3pbrK8soDeSn/AemsB+wJMl95PV
2CvrxLGu5+buOhMCAwEAAaMvMC0wCQYDVR0TBAIwADALBgNVHQ8EBAMCBeAwEwYD
VR0lBAwwCgYIKwYBBQUHAwkwDQYJKoZIhvcNAQELBQADggEBAHxFoqrmLvMxHvrG
O1Tdh0hZXowhrgh1BpPM3PUr7zMw7XsWd3vdEg8RPU2xvYans3ZyBUzPR5y241RF
z3RNFG1/0kk0XSdK6WsVtH5nB1Gxlah5VnbX4RdILMzQFUa05ZdEZpQSOsdbommt
hhlOcow90BM/Z6PQF3DBN3xAgrUPqx7ADt+6fbZkZroVhTWyiFbj1WtBw7Kzpusd
Vb7K8Q+F1qNskb6RvX9idSht1xf8BHRyVWqhzCb/mgKSBwnsqB2TAo6C/1wxgT3X
PhEoZOWpw7aa8RfAlZHPI+nQw/0re/YRXgFQYgr3Q/XjGWSyQWWxL4rYYp//phce
3AFCvQM=
-----END CERTIFICATE-----
