Certificate:
    Data:
        Version: 3 (0x2)
        Serial Number: 6 (0x6)
        Signature Algorithm: ecdsa-with-SHA256
        Issuer: C=FR, ST=Radius, L=Somewhere, O=Example Inc/emailAddress=admin@example.org, CN=Example Certificate Authority
        Validity
            Not Before: Feb 13 16:43:41 2025 GMT
            Not After : Apr 14 16:43:41 2025 GMT
        Subject: C=FR, ST=Radius, O=Example Inc, CN=Example OCSP Responder Certificate/emailAddress=admin@example.org
        Subject Public Key Info:
            Public Key Algorithm: id-ecPublicKey
                Public-Key: (256 bit)
                pub:
                    04:75:97:54:81:27:9d:f6:e1:5d:7c:60:1e:1c:68:
                    94:21:f3:ef:83:9d:bd:c0:dd:aa:c7:65:69:87:cb:
                    15:f1:0b:aa:86:3b:ee:3f:41:86:20:45:9c:94:5f:
                    e8:59:e3:4b:67:1d:88:6b:db:a5:15:2c:57:9b:f1:
                    d2:ab:4a:2e:9a
                ASN1 OID: prime256v1
                NIST CURVE: P-256
        X509v3 extensions:
            X509v3 Basic Constraints: 
                CA:FALSE
            X509v3 Key Usage: 
                Digital Signature, Non Repudiation, Key Encipherment
            X509v3 Extended Key Usage: 
                OCSP Signing
    Signature Algorithm: ecdsa-with-SHA256
         30:45:02:20:07:2d:bb:a7:52:19:4c:72:f7:60:b0:d6:65:e5:
         d0:fe:81:0a:3c:a0:a4:cd:11:07:de:f0:8e:31:65:b3:d8:19:
         02:21:00:ba:7a:2b:bc:05:bc:49:2b:c9:01:6b:76:99:dd:33:
         a0:24:60:f5:13:c2:f4:52:b1:f7:b6:ad:8e:52:d4:34:6f
-----BEGIN CERTIFICATE-----
MIICNTCCAdugAwIBAgIBBjAKBggqhkjOPQQDAjCBkjELMAkGA1UEBhMCRlIxDzAN
BgNVBAgMBlJhZGl1czESMBAGA1UEBwwJU29tZXdoZXJlMRQwEgYDVQQKDAtFeGFt
cGxlIEluYzEgMB4GCSqGSIb3DQEJARYRYWRtaW5AZXhhbXBsZS5vcmcxJjAkBgNV
BAMMHUV4YW1wbGUgQ2VydGlmaWNhdGUgQXV0aG9yaXR5MB4XDTI1MDIxMzE2NDM0
MVoXDTI1MDQxNDE2NDM0MVowgYMxCzAJBgNVBAYTAkZSMQ8wDQYDVQQIDAZSYWRp
dXMxFDASBgNVBAoMC0V4YW1wbGUgSW5jMSswKQYDVQQDDCJFeGFtcGxlIE9DU1Ag
UmVzcG9uZGVyIENlcnRpZmljYXRlMSAwHgYJKoZIhvcNAQkBFhFhZG1pbkBleGFt
cGxlLm9yZzBZMBMGByqGSM49AgEGCCqGSM49AwEHA0IABHWXVIEnnfbhXXxgHhxo
lCHz74OdvcDdqsdlaYfLFfELqoY77j9BhiBFnJRf6FnjS2cdiGvbpRUsV5vx0qtK
LpqjLzAtMAkGA1UdEwQCMAAwCwYDVR0PBAQDAgXgMBMGA1UdJQQMMAoGCCsGAQUF
BwMJMAoGCCqGSM49BAMCA0gAMEUCIActu6dSGUxy92Cw1mXl0P6BCjygpM0RB97w
jjFls9gZAiEAunorvAW8SSvJAWt2md0zoCRg9RPC9FKx97atjlLUNG8=
-----END CERTIFICATE-----
